(lp0
(dp1
S'start'
p2
I1
sS'end'
p3
I5
sS'keyword'
p4
(lp5
S'yelp'
p6
asS'filename'
p7
S'30clip.avi'
p8
sa(dp9
S'start'
p10
I1
sS'end'
p11
I5
sS'keyword'
p12
(lp13
S'yelp'
p14
asS'filename'
p15
S'30clip.avi'
p16
sa(dp17
S'start'
p18
I1
sS'end'
p19
I5
sS'keyword'
p20
(lp21
S'yelp'
p22
asS'filename'
p23
S'30clip.avi'
p24
sa(dp25
S'start'
p26
I5
sS'end'
p27
I9
sS'keyword'
p28
(lp29
S'e.l.f.'
p30
asS'filename'
p31
S'150clip.avi'
p32
sa(dp33
S'start'
p34
I10
sS'end'
p35
I18
sS'keyword'
p36
(lp37
S'e.l.f.'
p38
asS'filename'
p39
S'300clip.avi'
p40
sa(dp41
S'start'
p42
I1
sS'end'
p43
I5
sS'keyword'
p44
(lp45
S'yelp'
p46
asS'filename'
p47
S'30clip.avi'
p48
sa(dp49
S'start'
p50
I5
sS'end'
p51
I9
sS'keyword'
p52
(lp53
S'e.l.f.'
p54
asS'filename'
p55
S'150clip.avi'
p56
sa(dp57
S'start'
p58
I1
sS'end'
p59
I5
sS'keyword'
p60
(lp61
S'yelp'
p62
asS'filename'
p63
S'30clip.avi'
p64
sa(dp65
S'start'
p66
I1
sS'end'
p67
I5
sS'keyword'
p68
(lp69
S'yelp'
p70
asS'filename'
p71
S'30clip.avi'
p72
sa(dp73
S'start'
p74
I1
sS'end'
p75
I5
sS'keyword'
p76
(lp77
S'yelp'
p78
asS'filename'
p79
S'30clip.avi'
p80
sa(dp81
S'start'
p82
I5
sS'end'
p83
I9
sS'keyword'
p84
(lp85
S'e.l.f.'
p86
asS'filename'
p87
S'150clip.avi'
p88
sa(dp89
S'start'
p90
I10
sS'end'
p91
I18
sS'keyword'
p92
(lp93
S'e.l.f.'
p94
asS'filename'
p95
S'300clip.avi'
p96
sa(dp97
S'start'
p98
I1
sS'end'
p99
I5
sS'keyword'
p100
(lp101
S'yelp'
p102
asS'filename'
p103
S'30clip.avi'
p104
sa(dp105
S'start'
p106
I5
sS'end'
p107
I9
sS'keyword'
p108
(lp109
S'e.l.f.'
p110
asS'filename'
p111
S'150clip.avi'
p112
sa(dp113
S'start'
p114
I10
sS'end'
p115
I18
sS'keyword'
p116
(lp117
S'e.l.f.'
p118
asS'filename'
p119
S'300clip.avi'
p120
sa(dp121
S'start'
p122
I1
sS'end'
p123
I5
sS'keyword'
p124
(lp125
S'yelp'
p126
asS'filename'
p127
S'30clip.avi'
p128
sa(dp129
S'start'
p130
I5
sS'end'
p131
I9
sS'keyword'
p132
(lp133
S'e.l.f.'
p134
asS'filename'
p135
S'150clip.avi'
p136
sa(dp137
S'start'
p138
I10
sS'end'
p139
I18
sS'keyword'
p140
(lp141
S'e.l.f.'
p142
asS'filename'
p143
S'300clip.avi'
p144
sa(dp145
S'start'
p146
I1
sS'end'
p147
I5
sS'keyword'
p148
(lp149
S'yelp'
p150
asS'filename'
p151
S'30clip.avi'
p152
sa(dp153
S'start'
p154
I5
sS'end'
p155
I9
sS'keyword'
p156
(lp157
S'e.l.f.'
p158
asS'filename'
p159
S'150clip.avi'
p160
sa(dp161
S'start'
p162
I10
sS'end'
p163
I18
sS'keyword'
p164
(lp165
S'e.l.f.'
p166
asS'filename'
p167
S'300clip.avi'
p168
sa.